; Function Attrs: nounwind uwtable
define zeroext range(i8 0, 2) i8 @l_Int_Linear_diseq__split__cert(ptr noundef %0, ptr noundef %1, ptr noundef %2) local_unnamed_addr #1 {
  %4 = load ptr, ptr @l_Int_Linear_Poly_denote_x27_go___closed__1, align 8, !tbaa !11
  %5 = ptrtoint ptr %0 to i64
  %6 = and i64 %5, 1
  %.not = icmp eq i64 %6, 0
  br i1 %.not, label %7, label %lean_inc.exit

7:                                                ; preds = %3
  %.val.i = load i32, ptr %0, align 4, !tbaa !6
  %8 = icmp sgt i32 %.val.i, 0
  br i1 %8, label %9, label %11, !prof !5

9:                                                ; preds = %7
  %10 = add nuw i32 %.val.i, 1
  store i32 %10, ptr %0, align 4, !tbaa !6
  br label %lean_inc.exit

11:                                               ; preds = %7
  %.not.i23 = icmp eq i32 %.val.i, 0
  br i1 %.not.i23, label %lean_inc.exit, label %12

12:                                               ; preds = %11
  tail call void @lean_inc_ref_cold(ptr noundef nonnull %0) #5
  br label %lean_inc.exit

lean_inc.exit:                                    ; preds = %12, %11, %9, %3
  %13 = tail call ptr @l_Int_Linear_Poly_addConst(ptr noundef %0, ptr noundef %4)
  %14 = tail call zeroext i8 @l_Int_Linear_beqPoly____x40_Init_Data_Int_Linear___hyg_596_(ptr noundef %1, ptr noundef %13)
  %15 = ptrtoint ptr %13 to i64
  %16 = and i64 %15, 1
  %.not25 = icmp eq i64 %16, 0
  br i1 %.not25, label %17, label %lean_dec.exit18

17:                                               ; preds = %lean_inc.exit
  %18 = load i32, ptr %13, align 4, !tbaa !6
  %19 = icmp sgt i32 %18, 1
  br i1 %19, label %20, label %22, !prof !5

20:                                               ; preds = %17
  %21 = add nsw i32 %18, -1
  store i32 %21, ptr %13, align 4, !tbaa !6
  br label %lean_dec.exit18

22:                                               ; preds = %17
  %.not.i = icmp eq i32 %18, 0
  br i1 %.not.i, label %lean_dec.exit18, label %23

23:                                               ; preds = %22
  tail call void @lean_dec_ref_cold(ptr noundef nonnull %13) #5
  br label %lean_dec.exit18

lean_dec.exit18:                                  ; preds = %23, %22, %20, %lean_inc.exit
  %24 = icmp eq i8 %14, 0
  br i1 %24, label %25, label %33

25:                                               ; preds = %lean_dec.exit18
  br i1 %.not, label %26, label %lean_dec.exit17

26:                                               ; preds = %25
  %27 = load i32, ptr %0, align 4, !tbaa !6
  %28 = icmp sgt i32 %27, 1
  br i1 %28, label %29, label %31, !prof !5

29:                                               ; preds = %26
  %30 = add nsw i32 %27, -1
  store i32 %30, ptr %0, align 4, !tbaa !6
  br label %lean_dec.exit17

31:                                               ; preds = %26
  %.not.i19 = icmp eq i32 %27, 0
  br i1 %.not.i19, label %lean_dec.exit17, label %32

32:                                               ; preds = %31
  tail call void @lean_dec_ref_cold(ptr noundef nonnull %0) #5
  br label %lean_dec.exit17

33:                                               ; preds = %lean_dec.exit18
  %34 = load ptr, ptr @l_Int_Linear_norm__eq__var__cert___closed__1, align 8, !tbaa !11
  %35 = load ptr, ptr @l_Int_Linear_instInhabitedExpr___closed__1, align 8, !tbaa !11
  %36 = ptrtoint ptr %34 to i64
  %37 = ptrtoint ptr %35 to i64
  %38 = and i64 %36, 1
  %39 = and i64 %38, %37
  %or.cond.not.i.i.i = icmp eq i64 %39, 0
  br i1 %or.cond.not.i.i.i, label %lean_int_dec_eq.exit.i, label %40, !prof !13

40:                                               ; preds = %33
  %41 = icmp eq ptr %34, %35
  br i1 %41, label %45, label %43

lean_int_dec_eq.exit.i:                           ; preds = %33
  %42 = tail call zeroext i1 @lean_int_big_eq(ptr noundef %34, ptr noundef %35) #5
  br i1 %42, label %45, label %43

43:                                               ; preds = %lean_int_dec_eq.exit.i, %40
  %44 = tail call ptr @l_Int_Linear_Poly_mul_x27(ptr noundef %0, ptr noundef %34)
  br label %l_Int_Linear_Poly_mul.exit

45:                                               ; preds = %lean_int_dec_eq.exit.i, %40
  br i1 %.not, label %46, label %lean_dec.exit.i

46:                                               ; preds = %45
  %47 = load i32, ptr %0, align 4, !tbaa !6
  %48 = icmp sgt i32 %47, 1
  br i1 %48, label %49, label %51, !prof !5

49:                                               ; preds = %46
  %50 = add nsw i32 %47, -1
  store i32 %50, ptr %0, align 4, !tbaa !6
  br label %lean_dec.exit.i

51:                                               ; preds = %46
  %.not.i.i = icmp eq i32 %47, 0
  br i1 %.not.i.i, label %lean_dec.exit.i, label %52

52:                                               ; preds = %51
  tail call void @lean_dec_ref_cold(ptr noundef nonnull %0) #5
  br label %lean_dec.exit.i

lean_dec.exit.i:                                  ; preds = %52, %51, %49, %45
  %53 = load ptr, ptr @l_Int_Linear_Expr_toPoly_x27___closed__1, align 8, !tbaa !11
  br label %l_Int_Linear_Poly_mul.exit

l_Int_Linear_Poly_mul.exit:                       ; preds = %43, %lean_dec.exit.i
  %.0.i = phi ptr [ %44, %43 ], [ %53, %lean_dec.exit.i ]
  %54 = tail call ptr @l_Int_Linear_Poly_addConst(ptr noundef %.0.i, ptr noundef %4)
  %55 = tail call zeroext i8 @l_Int_Linear_beqPoly____x40_Init_Data_Int_Linear___hyg_596_(ptr noundef %2, ptr noundef %54)
  %56 = ptrtoint ptr %54 to i64
  %57 = and i64 %56, 1
  %.not26 = icmp eq i64 %57, 0
  br i1 %.not26, label %58, label %lean_dec.exit17

58:                                               ; preds = %l_Int_Linear_Poly_mul.exit
  %59 = load i32, ptr %54, align 4, !tbaa !6
  %60 = icmp sgt i32 %59, 1
  br i1 %60, label %61, label %63, !prof !5

61:                                               ; preds = %58
  %62 = add nsw i32 %59, -1
  store i32 %62, ptr %54, align 4, !tbaa !6
  br label %lean_dec.exit17

63:                                               ; preds = %58
  %.not.i21 = icmp eq i32 %59, 0
  br i1 %.not.i21, label %lean_dec.exit17, label %64

64:                                               ; preds = %63
  tail call void @lean_dec_ref_cold(ptr noundef nonnull %54) #5
  br label %lean_dec.exit17

lean_dec.exit17:                                  ; preds = %l_Int_Linear_Poly_mul.exit, %61, %63, %64, %25, %29, %31, %32
  %.0 = phi i8 [ 0, %32 ], [ 0, %31 ], [ 0, %29 ], [ 0, %25 ], [ %55, %64 ], [ %55, %63 ], [ %55, %61 ], [ %55, %l_Int_Linear_Poly_mul.exit ]
  ret i8 %.0
}